target datalayout = "e-m:e-p270:32:32-p271:32:32-p272:64:64-i64:64-i128:128-f80:128-n8:16:32:64-S128"
target triple = "x86_64-pc-linux-gnu"

; Function Attrs: nounwind uwtable
define internal ptr @l_alloc(ptr noundef %0, ptr noundef %1, i64 noundef %2, i64 noundef %3) #0 {
  %5 = alloca ptr, align 8
  %6 = alloca ptr, align 8
  %7 = alloca ptr, align 8
  %8 = alloca i64, align 8
  %9 = alloca i64, align 8
  store ptr %0, ptr %6, align 8, !tbaa !25
  store ptr %1, ptr %7, align 8, !tbaa !25
  store i64 %2, ptr %8, align 8, !tbaa !23
  store i64 %3, ptr %9, align 8, !tbaa !23
  %10 = load i64, ptr %9, align 8, !tbaa !23
  %11 = icmp eq i64 %10, 0
  br i1 %11, label %12, label %14

12:                                               ; preds = %4
  %13 = load ptr, ptr %7, align 8, !tbaa !25
  call void @free(ptr noundef %13) #9
  store ptr null, ptr %5, align 8
  br label %18

14:                                               ; preds = %4
  %15 = load ptr, ptr %7, align 8, !tbaa !25
  %16 = load i64, ptr %9, align 8, !tbaa !23
  %17 = call ptr @realloc(ptr noundef %15, i64 noundef %16) #12
  store ptr %17, ptr %5, align 8
  br label %18

18:                                               ; preds = %14, %12
  %19 = load ptr, ptr %5, align 8
  ret ptr %19
}