; Function Attrs: mustprogress nounwind willreturn memory(argmem: readwrite, inaccessiblemem: readwrite) uwtable
define internal noalias noundef ptr @l_alloc(ptr readnone captures(none) %0, ptr noundef captures(none) %1, i64 %2, i64 noundef %3) #11 {
  %5 = icmp eq i64 %3, 0
  br i1 %5, label %6, label %7

6:                                                ; preds = %4
  tail call void @free(ptr noundef %1) #17
  br label %9

7:                                                ; preds = %4
  %8 = tail call ptr @realloc(ptr noundef %1, i64 noundef %3) #20
  br label %9

9:                                                ; preds = %7, %6
  %.0 = phi ptr [ null, %6 ], [ %8, %7 ]
  ret ptr %.0
}